target datalayout = "e-m:e-p270:32:32-p271:32:32-p272:64:64-i64:64-i128:128-f80:128-n8:16:32:64-S128"
target triple = "x86_64-pc-linux-gnu"

%struct.AVChannelLayout = type { i32, i32, %union.anon, ptr }
%union.anon = type { i64 }
%struct.AVFormatContext = type { ptr, ptr, ptr, ptr, ptr, i32, i32, ptr, i32, ptr, i32, ptr, ptr, i64, i64, i64, i32, i32, i32, i64, i64, ptr, i32, i32, ptr, i32, i32, i32, i32, ptr, i64, i32, i32, %struct.AVIOInterruptCB, i32, i32, i32, i32, i64, i32, i32, i32, i32, i32, i32, i32, i32, i32, i32, i32, i32, i64, i32, i32, i32, i32, i32, ptr, ptr, ptr, ptr, i32, ptr, ptr, ptr, ptr, i32, ptr, ptr, i64, ptr, ptr, ptr, i64 }
%struct.AVIOInterruptCB = type { ptr, ptr }
%struct.OMAContext = type { i64, i32, i16, i16, i16, i16, i32, [24 x i8], [24 x i8], [8 x i8], [8 x i8], [8 x i8], [8 x i8], [8 x i8], ptr, ptr }
%struct.AVStream = type { ptr, i32, i32, ptr, ptr, %struct.AVRational, i64, i64, i64, i32, i32, %struct.AVRational, ptr, %struct.AVRational, %struct.AVPacket, i32, %struct.AVRational, i32 }
%struct.AVPacket = type { ptr, i64, i64, ptr, i32, i32, i32, ptr, i32, i64, i64, ptr, ptr, %struct.AVRational }
%struct.AVRational = type { i32, i32 }
%struct.AVCodecParameters = type { i32, i32, i32, ptr, i32, ptr, i32, i32, i64, i32, i32, i32, i32, i32, i32, %struct.AVRational, %struct.AVRational, i32, i32, i32, i32, i32, i32, i32, %struct.AVChannelLayout, i32, i32, i32, i32, i32, i32 }

; Function Attrs: alwaysinline nounwind uwtable
define internal i64 @avio_tell(ptr noundef %0) #4 {
  %2 = alloca ptr, align 8
  store ptr %0, ptr %2, align 8, !tbaa !86
  %3 = load ptr, ptr %2, align 8, !tbaa !86
  %4 = call i64 @avio_seek(ptr noundef %3, i64 noundef 0, i32 noundef 1)
  ret i64 %4
}

; Function Attrs: nounwind uwtable
define internal i32 @oma_read_seek(ptr noundef %0, i32 noundef %1, i64 noundef %2, i32 noundef %3) #0 {
  %5 = alloca i32, align 4
  %6 = alloca ptr, align 8
  %7 = alloca i32, align 4
  %8 = alloca i64, align 8
  %9 = alloca i32, align 4
  %10 = alloca ptr, align 8
  %11 = alloca ptr, align 8
  %12 = alloca i64, align 8
  %13 = alloca i32, align 4
  store ptr %0, ptr %6, align 8, !tbaa !17
  store i32 %1, ptr %7, align 4, !tbaa !14
  store i64 %2, ptr %8, align 8, !tbaa !83
  store i32 %3, ptr %9, align 4, !tbaa !14
  call void @llvm.lifetime.start.p0(i64 8, ptr %10) #9
  %14 = load ptr, ptr %6, align 8, !tbaa !17
  %15 = getelementptr inbounds nuw %struct.AVFormatContext, ptr %14, i32 0, i32 3
  %16 = load ptr, ptr %15, align 8, !tbaa !19
  store ptr %16, ptr %10, align 8, !tbaa !34
  call void @llvm.lifetime.start.p0(i64 8, ptr %11) #9
  %17 = load ptr, ptr %6, align 8, !tbaa !17
  %18 = getelementptr inbounds nuw %struct.AVFormatContext, ptr %17, i32 0, i32 7
  %19 = load ptr, ptr %18, align 8, !tbaa !84
  %20 = getelementptr inbounds ptr, ptr %19, i64 0
  %21 = load ptr, ptr %20, align 8, !tbaa !44
  store ptr %21, ptr %11, align 8, !tbaa !44
  call void @llvm.lifetime.start.p0(i64 8, ptr %12) #9
  %22 = load ptr, ptr %11, align 8, !tbaa !44
  %23 = getelementptr inbounds nuw %struct.AVStream, ptr %22, i32 0, i32 3
  %24 = load ptr, ptr %23, align 8, !tbaa !53
  %25 = getelementptr inbounds nuw %struct.AVCodecParameters, ptr %24, i32 0, i32 1
  %26 = load i32, ptr %25, align 4, !tbaa !58
  %27 = icmp eq i32 %26, 86099
  br i1 %27, label %35, label %28

28:                                               ; preds = %4
  %29 = load ptr, ptr %11, align 8, !tbaa !44
  %30 = getelementptr inbounds nuw %struct.AVStream, ptr %29, i32 0, i32 3
  %31 = load ptr, ptr %30, align 8, !tbaa !53
  %32 = getelementptr inbounds nuw %struct.AVCodecParameters, ptr %31, i32 0, i32 1
  %33 = load i32, ptr %32, align 4, !tbaa !58
  %34 = icmp eq i32 %33, 86098
  br i1 %34, label %35, label %36

35:                                               ; preds = %28, %4
  store i32 -1, ptr %5, align 4
  store i32 1, ptr %13, align 4
  br label %92

36:                                               ; preds = %28
  %37 = load ptr, ptr %6, align 8, !tbaa !17
  %38 = load i32, ptr %7, align 4, !tbaa !14
  %39 = load i64, ptr %8, align 8, !tbaa !83
  %40 = load i32, ptr %9, align 4, !tbaa !14
  %41 = call i32 @ff_pcm_read_seek(ptr noundef %37, i32 noundef %38, i64 noundef %39, i32 noundef %40)
  %42 = sext i32 %41 to i64
  store i64 %42, ptr %12, align 8, !tbaa !83
  %43 = load ptr, ptr %10, align 8, !tbaa !34
  %44 = getelementptr inbounds nuw %struct.OMAContext, ptr %43, i32 0, i32 1
  %45 = load i32, ptr %44, align 8, !tbaa !85
  %46 = icmp ne i32 %45, 0
  br i1 %46, label %50, label %47

47:                                               ; preds = %36
  %48 = load i64, ptr %12, align 8, !tbaa !83
  %49 = trunc i64 %48 to i32
  store i32 %49, ptr %5, align 4
  store i32 1, ptr %13, align 4
  br label %92

50:                                               ; preds = %36
  %51 = load i64, ptr %12, align 8, !tbaa !83
  %52 = icmp ne i64 %51, 0
  br i1 %52, label %62, label %53

53:                                               ; preds = %50
  %54 = load ptr, ptr %6, align 8, !tbaa !17
  %55 = getelementptr inbounds nuw %struct.AVFormatContext, ptr %54, i32 0, i32 4
  %56 = load ptr, ptr %55, align 8, !tbaa !38
  %57 = call i64 @avio_tell(ptr noundef %56)
  %58 = load ptr, ptr %10, align 8, !tbaa !34
  %59 = getelementptr inbounds nuw %struct.OMAContext, ptr %58, i32 0, i32 0
  %60 = load i64, ptr %59, align 8, !tbaa !39
  %61 = icmp ult i64 %57, %60
  br i1 %61, label %62, label %63

62:                                               ; preds = %53, %50
  br label %86

63:                                               ; preds = %53
  %64 = load ptr, ptr %6, align 8, !tbaa !17
  %65 = getelementptr inbounds nuw %struct.AVFormatContext, ptr %64, i32 0, i32 4
  %66 = load ptr, ptr %65, align 8, !tbaa !38
  %67 = call i64 @avio_seek(ptr noundef %66, i64 noundef -8, i32 noundef 1)
  store i64 %67, ptr %12, align 8, !tbaa !83
  %68 = icmp slt i64 %67, 0
  br i1 %68, label %69, label %70

69:                                               ; preds = %63
  br label %86

70:                                               ; preds = %63
  %71 = load ptr, ptr %6, align 8, !tbaa !17
  %72 = getelementptr inbounds nuw %struct.AVFormatContext, ptr %71, i32 0, i32 4
  %73 = load ptr, ptr %72, align 8, !tbaa !38
  %74 = load ptr, ptr %10, align 8, !tbaa !34
  %75 = getelementptr inbounds nuw %struct.OMAContext, ptr %74, i32 0, i32 13
  %76 = getelementptr inbounds [8 x i8], ptr %75, i64 0, i64 0
  %77 = call i32 @avio_read(ptr noundef %73, ptr noundef %76, i32 noundef 8)
  %78 = sext i32 %77 to i64
  store i64 %78, ptr %12, align 8, !tbaa !83
  %79 = icmp slt i64 %78, 8
  br i1 %79, label %80, label %85

80:                                               ; preds = %70
  %81 = load i64, ptr %12, align 8, !tbaa !83
  %82 = icmp sge i64 %81, 0
  br i1 %82, label %83, label %84

83:                                               ; preds = %80
  store i64 -541478725, ptr %12, align 8, !tbaa !83
  br label %84

84:                                               ; preds = %83, %80
  br label %86

85:                                               ; preds = %70
  store i32 0, ptr %5, align 4
  store i32 1, ptr %13, align 4
  br label %92

86:                                               ; preds = %84, %69, %62
  %87 = load ptr, ptr %10, align 8, !tbaa !34
  %88 = getelementptr inbounds nuw %struct.OMAContext, ptr %87, i32 0, i32 13
  %89 = getelementptr inbounds [8 x i8], ptr %88, i64 0, i64 0
  call void @llvm.memset.p0.i64(ptr align 8 %89, i8 0, i64 8, i1 false)
  %90 = load i64, ptr %12, align 8, !tbaa !83
  %91 = trunc i64 %90 to i32
  store i32 %91, ptr %5, align 4
  store i32 1, ptr %13, align 4
  br label %92

92:                                               ; preds = %86, %85, %47, %35
  call void @llvm.lifetime.end.p0(i64 8, ptr %12) #9
  call void @llvm.lifetime.end.p0(i64 8, ptr %11) #9
  call void @llvm.lifetime.end.p0(i64 8, ptr %10) #9
  %93 = load i32, ptr %5, align 4
  ret i32 %93
}