; Function Attrs: nounwind uwtable
define internal i32 @oma_read_seek(ptr noundef %0, i32 noundef %1, i64 noundef %2, i32 noundef %3) #0 {
  %5 = getelementptr inbounds nuw i8, ptr %0, i64 24
  %6 = load ptr, ptr %5, align 8, !tbaa !13
  %7 = getelementptr inbounds nuw i8, ptr %0, i64 48
  %8 = load ptr, ptr %7, align 8, !tbaa !89
  %9 = load ptr, ptr %8, align 8, !tbaa !90
  %10 = getelementptr inbounds nuw i8, ptr %9, i64 16
  %11 = load ptr, ptr %10, align 8, !tbaa !62
  %12 = getelementptr inbounds nuw i8, ptr %11, i64 4
  %13 = load i32, ptr %12, align 4, !tbaa !67
  %14 = and i32 %13, -2
  %switch = icmp eq i32 %14, 86098
  br i1 %switch, label %41, label %15

15:                                               ; preds = %4
  %16 = tail call i32 @ff_pcm_read_seek(ptr noundef nonnull %0, i32 noundef %1, i64 noundef %2, i32 noundef %3) #9
  %17 = getelementptr inbounds nuw i8, ptr %6, i64 8
  %18 = load i32, ptr %17, align 8, !tbaa !35
  %.not = icmp eq i32 %18, 0
  br i1 %.not, label %41, label %19

19:                                               ; preds = %15
  %20 = zext i32 %16 to i64
  %.not24 = icmp eq i32 %16, 0
  br i1 %.not24, label %21, label %38

21:                                               ; preds = %19
  %22 = getelementptr inbounds nuw i8, ptr %0, i64 32
  %23 = load ptr, ptr %22, align 8, !tbaa !30
  %24 = tail call i64 @avio_seek(ptr noundef %23, i64 noundef 0, i32 noundef 1) #9
  %25 = load i64, ptr %6, align 8, !tbaa !31
  %26 = icmp ult i64 %24, %25
  br i1 %26, label %38, label %27

27:                                               ; preds = %21
  %28 = load ptr, ptr %22, align 8, !tbaa !30
  %29 = tail call i64 @avio_seek(ptr noundef %28, i64 noundef -8, i32 noundef 1) #9
  %30 = icmp slt i64 %29, 0
  br i1 %30, label %38, label %31

31:                                               ; preds = %27
  %32 = load ptr, ptr %22, align 8, !tbaa !30
  %33 = getelementptr inbounds nuw i8, ptr %6, i64 104
  %34 = tail call i32 @avio_read(ptr noundef %32, ptr noundef nonnull %33, i32 noundef 8) #9
  %35 = icmp slt i32 %34, 8
  br i1 %35, label %36, label %41

36:                                               ; preds = %31
  %37 = icmp sgt i32 %34, -1
  %narrow = select i1 %37, i32 -541478725, i32 %34
  %spec.store.select25 = zext i32 %narrow to i64
  br label %38

38:                                               ; preds = %27, %19, %21, %36
  %.0 = phi i64 [ %20, %19 ], [ 0, %21 ], [ %29, %27 ], [ %spec.store.select25, %36 ]
  %39 = getelementptr inbounds nuw i8, ptr %6, i64 104
  store i64 0, ptr %39, align 8
  %40 = trunc i64 %.0 to i32
  br label %41

41:                                               ; preds = %4, %31, %15, %38
  %.019 = phi i32 [ %40, %38 ], [ -1, %4 ], [ %16, %15 ], [ 0, %31 ]
  ret i32 %.019
}